target datalayout = "e-m:e-p270:32:32-p271:32:32-p272:64:64-i64:64-i128:128-f80:128-n8:16:32:64-S128"
target triple = "x86_64-unknown-linux-gnu"

%"class.icu_75::FilteredNormalizer2" = type { %"class.icu_75::Normalizer2", ptr, ptr }
%"class.icu_75::Normalizer2" = type { %"class.icu_75::UObject" }
%"class.icu_75::UObject" = type { ptr }

@_ZTVN6icu_7519FilteredNormalizer2E = external unnamed_addr constant { [20 x ptr] }, align 8
@_ZTVN6icu_7511Normalizer2E = external unnamed_addr constant { [20 x ptr] }, align 8
@_ZTVN6icu_757UObjectE = external unnamed_addr constant { [5 x ptr] }, align 8

; Function Attrs: mustprogress nounwind uwtable
define linkonce_odr void @_ZN6icu_757UObjectC2Ev(ptr noundef nonnull align 8 dereferenceable(8) %this) unnamed_addr #2 comdat align 2 {
entry:
  %this.addr = alloca ptr, align 8
  store ptr %this, ptr %this.addr, align 8
  %this1 = load ptr, ptr %this.addr, align 8
  store ptr getelementptr inbounds ({ [5 x ptr] }, ptr @_ZTVN6icu_757UObjectE, i32 0, i32 0, i32 2), ptr %this1, align 8
  ret void
}

; Function Attrs: mustprogress nounwind uwtable
define linkonce_odr void @_ZN6icu_7511Normalizer2C2Ev(ptr noundef nonnull align 8 dereferenceable(8) %this) unnamed_addr #2 comdat align 2 {
entry:
  %this.addr = alloca ptr, align 8
  store ptr %this, ptr %this.addr, align 8
  %this1 = load ptr, ptr %this.addr, align 8
  call void @_ZN6icu_757UObjectC2Ev(ptr noundef nonnull align 8 dereferenceable(8) %this1) #4
  store ptr getelementptr inbounds ({ [20 x ptr] }, ptr @_ZTVN6icu_7511Normalizer2E, i32 0, i32 0, i32 2), ptr %this1, align 8
  ret void
}

; Function Attrs: mustprogress nounwind uwtable
define linkonce_odr void @_ZN6icu_7519FilteredNormalizer2C2ERKNS_11Normalizer2ERKNS_10UnicodeSetE(ptr noundef nonnull align 8 dereferenceable(24) %this, ptr noundef nonnull align 8 dereferenceable(8) %n2, ptr noundef nonnull align 8 dereferenceable(200) %filterSet) unnamed_addr #2 comdat align 2 {
entry:
  %this.addr = alloca ptr, align 8
  %n2.addr = alloca ptr, align 8
  %filterSet.addr = alloca ptr, align 8
  store ptr %this, ptr %this.addr, align 8
  store ptr %n2, ptr %n2.addr, align 8
  store ptr %filterSet, ptr %filterSet.addr, align 8
  %this1 = load ptr, ptr %this.addr, align 8
  call void @_ZN6icu_7511Normalizer2C2Ev(ptr noundef nonnull align 8 dereferenceable(8) %this1) #4
  store ptr getelementptr inbounds ({ [20 x ptr] }, ptr @_ZTVN6icu_7519FilteredNormalizer2E, i32 0, i32 0, i32 2), ptr %this1, align 8
  %norm2 = getelementptr inbounds %"class.icu_75::FilteredNormalizer2", ptr %this1, i32 0, i32 1
  %0 = load ptr, ptr %n2.addr, align 8
  store ptr %0, ptr %norm2, align 8
  %set = getelementptr inbounds %"class.icu_75::FilteredNormalizer2", ptr %this1, i32 0, i32 2
  %1 = load ptr, ptr %filterSet.addr, align 8
  store ptr %1, ptr %set, align 8
  ret void
}

; Function Attrs: mustprogress uwtable
define i32 @unorm_normalize_75(ptr noundef %src, i32 noundef %srcLength, i32 noundef %mode, i32 noundef %options, ptr noundef %dest, i32 noundef %destCapacity, ptr noundef %pErrorCode) #0 personality ptr @__gxx_personality_v0 {
entry:
  %retval = alloca i32, align 4
  %src.addr = alloca ptr, align 8
  %srcLength.addr = alloca i32, align 4
  %mode.addr = alloca i32, align 4
  %options.addr = alloca i32, align 4
  %dest.addr = alloca ptr, align 8
  %destCapacity.addr = alloca i32, align 4
  %pErrorCode.addr = alloca ptr, align 8
  %n2 = alloca ptr, align 8
  %fn2 = alloca %"class.icu_75::FilteredNormalizer2", align 8
  %exn.slot = alloca ptr, align 8
  %ehselector.slot = alloca i32, align 4
  store ptr %src, ptr %src.addr, align 8
  store i32 %srcLength, ptr %srcLength.addr, align 4
  store i32 %mode, ptr %mode.addr, align 4
  store i32 %options, ptr %options.addr, align 4
  store ptr %dest, ptr %dest.addr, align 8
  store i32 %destCapacity, ptr %destCapacity.addr, align 4
  store ptr %pErrorCode, ptr %pErrorCode.addr, align 8
  %0 = load i32, ptr %mode.addr, align 4
  %1 = load ptr, ptr %pErrorCode.addr, align 8
  %call = call noundef ptr @_ZN6icu_7518Normalizer2Factory11getInstanceE18UNormalizationModeR10UErrorCode(i32 noundef %0, ptr noundef nonnull align 4 dereferenceable(4) %1)
  store ptr %call, ptr %n2, align 8
  %2 = load i32, ptr %options.addr, align 4
  %and = and i32 %2, 32
  %tobool = icmp ne i32 %and, 0
  br i1 %tobool, label %if.then, label %if.else

if.then:                                          ; preds = %entry
  %3 = load ptr, ptr %n2, align 8
  %4 = load ptr, ptr %pErrorCode.addr, align 8
  %call1 = call ptr @uniset_getUnicode32Instance_75(ptr noundef nonnull align 4 dereferenceable(4) %4)
  call void @_ZN6icu_7519FilteredNormalizer2C2ERKNS_11Normalizer2ERKNS_10UnicodeSetE(ptr noundef nonnull align 8 dereferenceable(24) %fn2, ptr noundef nonnull align 8 dereferenceable(8) %3, ptr noundef nonnull align 8 dereferenceable(200) %call1)
  %5 = load ptr, ptr %src.addr, align 8
  %6 = load i32, ptr %srcLength.addr, align 4
  %7 = load ptr, ptr %dest.addr, align 8
  %8 = load i32, ptr %destCapacity.addr, align 4
  %9 = load ptr, ptr %pErrorCode.addr, align 8
  %call2 = invoke i32 @unorm2_normalize_75(ptr noundef %fn2, ptr noundef %5, i32 noundef %6, ptr noundef %7, i32 noundef %8, ptr noundef %9)
          to label %invoke.cont unwind label %lpad

invoke.cont:                                      ; preds = %if.then
  store i32 %call2, ptr %retval, align 4
  call void @_ZN6icu_7519FilteredNormalizer2D1Ev(ptr noundef nonnull align 8 dereferenceable(24) %fn2) #4
  br label %return

lpad:                                             ; preds = %if.then
  %10 = landingpad { ptr, i32 }
          cleanup
  %11 = extractvalue { ptr, i32 } %10, 0
  store ptr %11, ptr %exn.slot, align 8
  %12 = extractvalue { ptr, i32 } %10, 1
  store i32 %12, ptr %ehselector.slot, align 4
  call void @_ZN6icu_7519FilteredNormalizer2D1Ev(ptr noundef nonnull align 8 dereferenceable(24) %fn2) #4
  br label %eh.resume

if.else:                                          ; preds = %entry
  %13 = load ptr, ptr %n2, align 8
  %14 = load ptr, ptr %src.addr, align 8
  %15 = load i32, ptr %srcLength.addr, align 4
  %16 = load ptr, ptr %dest.addr, align 8
  %17 = load i32, ptr %destCapacity.addr, align 4
  %18 = load ptr, ptr %pErrorCode.addr, align 8
  %call3 = call i32 @unorm2_normalize_75(ptr noundef %13, ptr noundef %14, i32 noundef %15, ptr noundef %16, i32 noundef %17, ptr noundef %18)
  store i32 %call3, ptr %retval, align 4
  br label %return

return:                                           ; preds = %if.else, %invoke.cont
  %19 = load i32, ptr %retval, align 4
  ret i32 %19

eh.resume:                                        ; preds = %lpad
  %exn = load ptr, ptr %exn.slot, align 8
  %sel = load i32, ptr %ehselector.slot, align 4
  %lpad.val = insertvalue { ptr, i32 } poison, ptr %exn, 0
  %lpad.val4 = insertvalue { ptr, i32 } %lpad.val, i32 %sel, 1
  resume { ptr, i32 } %lpad.val4
}