; Function Attrs: mustprogress uwtable
define i32 @unorm_normalize_75(ptr noundef %src, i32 noundef %srcLength, i32 noundef %mode, i32 noundef %options, ptr noundef %dest, i32 noundef %destCapacity, ptr noundef nonnull %pErrorCode) local_unnamed_addr #0 personality ptr @__gxx_personality_v0 {
entry:
  %fn2 = alloca %"class.icu_75::FilteredNormalizer2", align 8
  %call = tail call noundef ptr @_ZN6icu_7518Normalizer2Factory11getInstanceE18UNormalizationModeR10UErrorCode(i32 noundef %mode, ptr noundef nonnull align 4 dereferenceable(4) %pErrorCode)
  %and = and i32 %options, 32
  %tobool.not = icmp eq i32 %and, 0
  br i1 %tobool.not, label %if.else, label %if.then

if.then:                                          ; preds = %entry
  %call1 = tail call ptr @uniset_getUnicode32Instance_75(ptr noundef nonnull align 4 dereferenceable(4) %pErrorCode)
  store ptr getelementptr inbounds ({ [20 x ptr] }, ptr @_ZTVN6icu_7519FilteredNormalizer2E, i64 0, i32 0, i64 2), ptr %fn2, align 8
  %norm2.i = getelementptr inbounds i8, ptr %fn2, i64 8
  store ptr %call, ptr %norm2.i, align 8
  %set.i = getelementptr inbounds i8, ptr %fn2, i64 16
  store ptr %call1, ptr %set.i, align 8
  %call2 = invoke i32 @unorm2_normalize_75(ptr noundef nonnull %fn2, ptr noundef %src, i32 noundef %srcLength, ptr noundef %dest, i32 noundef %destCapacity, ptr noundef nonnull %pErrorCode)
          to label %invoke.cont unwind label %lpad

invoke.cont:                                      ; preds = %if.then
  call void @_ZN6icu_7519FilteredNormalizer2D1Ev(ptr noundef nonnull align 8 dereferenceable(24) %fn2) #3
  br label %return

lpad:                                             ; preds = %if.then
  %0 = landingpad { ptr, i32 }
          cleanup
  call void @_ZN6icu_7519FilteredNormalizer2D1Ev(ptr noundef nonnull align 8 dereferenceable(24) %fn2) #3
  resume { ptr, i32 } %0

if.else:                                          ; preds = %entry
  %call3 = tail call i32 @unorm2_normalize_75(ptr noundef %call, ptr noundef %src, i32 noundef %srcLength, ptr noundef %dest, i32 noundef %destCapacity, ptr noundef nonnull %pErrorCode)
  br label %return

return:                                           ; preds = %if.else, %invoke.cont
  %retval.0 = phi i32 [ %call2, %invoke.cont ], [ %call3, %if.else ]
  ret i32 %retval.0
}